; Function Attrs: mustprogress uwtable
define void @_ZN4base28PersistentHistogramAllocatorC2ESt10unique_ptrINS_25PersistentMemoryAllocatorESt14default_deleteIS2_EE(ptr noundef nonnull align 8 dereferenceable(132) initializes((0, 16)) %0, ptr noundef captures(none) %1) unnamed_addr #0 align 2 personality ptr @__gxx_personality_v0 {
  store ptr getelementptr inbounds nuw inrange(-16, 16) (i8, ptr @_ZTVN4base28PersistentHistogramAllocatorE, i64 16), ptr %0, align 8, !tbaa !67
  %3 = getelementptr inbounds nuw i8, ptr %0, i64 8
  %4 = load i64, ptr %1, align 8, !tbaa !61
  store i64 %4, ptr %3, align 8, !tbaa !61
  store ptr null, ptr %1, align 8, !tbaa !61
  %5 = getelementptr inbounds nuw i8, ptr %0, i64 16
  %6 = load ptr, ptr %3, align 8, !tbaa !61
  invoke void @_ZN4base36PersistentSparseHistogramDataManagerC1EPNS_25PersistentMemoryAllocatorE(ptr noundef nonnull align 8 dereferenceable(112) %5, ptr noundef %6)
          to label %7 unwind label %9

7:                                                ; preds = %2
  %8 = getelementptr inbounds nuw i8, ptr %0, i64 128
  store i32 0, ptr %8, align 8, !tbaa !69
  ret void

9:                                                ; preds = %2
  %10 = landingpad { ptr, i32 }
          cleanup
  %11 = load ptr, ptr %3, align 8, !tbaa !61
  %.not.i = icmp eq ptr %11, null
  br i1 %.not.i, label %_ZNSt10unique_ptrIN4base25PersistentMemoryAllocatorESt14default_deleteIS1_EED2Ev.exit, label %_ZNKSt14default_deleteIN4base25PersistentMemoryAllocatorEEclEPS1_.exit.i

_ZNKSt14default_deleteIN4base25PersistentMemoryAllocatorEEclEPS1_.exit.i: ; preds = %9
  %12 = load ptr, ptr %11, align 8, !tbaa !67
  %13 = getelementptr inbounds nuw i8, ptr %12, i64 8
  %14 = load ptr, ptr %13, align 8
  tail call void %14(ptr noundef nonnull align 8 dereferenceable(48) %11) #21
  br label %_ZNSt10unique_ptrIN4base25PersistentMemoryAllocatorESt14default_deleteIS1_EED2Ev.exit

_ZNSt10unique_ptrIN4base25PersistentMemoryAllocatorESt14default_deleteIS1_EED2Ev.exit: ; preds = %9, %_ZNKSt14default_deleteIN4base25PersistentMemoryAllocatorEEclEPS1_.exit.i
  store ptr null, ptr %3, align 8, !tbaa !61
  resume { ptr, i32 } %10
}